#include <math.h>
#include <stdio.h>
#include <stdlib.h>
#include <string.h>

void main()
{
	int m,a[5],k=0,i,t,n,p;
	scanf("%d",&m);
	n=m;
	while(m>=1)
	{
		m=m/10;
		k++;
	}
	
	for(i=0;i<k;i++)
	{
		t=n-n/10*10;
		printf("%d",t);
		n = n/10;
	}
	printf("\n");
	



}
